target datalayout = "e-m:e-p270:32:32-p271:32:32-p272:64:64-i64:64-i128:128-f80:128-n8:16:32:64-S128"
target triple = "x86_64-pc-linux-gnu"

%struct.FT_StreamRec_ = type { ptr, i64, i64, %union.FT_StreamDesc_, %union.FT_StreamDesc_, ptr, ptr, ptr, ptr, ptr }
%union.FT_StreamDesc_ = type { i64 }
%struct.FT_LZWFileRec_ = type { ptr, ptr, ptr, %struct.FT_LzwStateRec_, [4096 x i8], i64, ptr, ptr }
%struct.FT_LzwStateRec_ = type { i32, i32, [16 x i8], i32, i32, i8, i64, i32, i32, i32, i32, i32, i32, i32, i32, i32, ptr, ptr, i32, ptr, i32, i64, [64 x i8], ptr, ptr }

; Function Attrs: nounwind uwtable
define hidden void @ft_lzwstate_reset(ptr noundef %0) #0 {
  %2 = alloca ptr, align 8
  store ptr %0, ptr %2, align 8, !tbaa !24
  %3 = load ptr, ptr %2, align 8, !tbaa !24
  %4 = getelementptr inbounds nuw %struct.FT_LzwStateRec_, ptr %3, i32 0, i32 1
  store i32 0, ptr %4, align 4, !tbaa !37
  %5 = load ptr, ptr %2, align 8, !tbaa !24
  %6 = getelementptr inbounds nuw %struct.FT_LzwStateRec_, ptr %5, i32 0, i32 3
  store i32 0, ptr %6, align 8, !tbaa !38
  %7 = load ptr, ptr %2, align 8, !tbaa !24
  %8 = getelementptr inbounds nuw %struct.FT_LzwStateRec_, ptr %7, i32 0, i32 4
  store i32 0, ptr %8, align 4, !tbaa !39
  %9 = load ptr, ptr %2, align 8, !tbaa !24
  %10 = getelementptr inbounds nuw %struct.FT_LzwStateRec_, ptr %9, i32 0, i32 5
  store i8 0, ptr %10, align 8, !tbaa !40
  %11 = load ptr, ptr %2, align 8, !tbaa !24
  %12 = getelementptr inbounds nuw %struct.FT_LzwStateRec_, ptr %11, i32 0, i32 6
  store i64 0, ptr %12, align 8, !tbaa !41
  %13 = load ptr, ptr %2, align 8, !tbaa !24
  %14 = getelementptr inbounds nuw %struct.FT_LzwStateRec_, ptr %13, i32 0, i32 20
  store i32 0, ptr %14, align 8, !tbaa !42
  %15 = load ptr, ptr %2, align 8, !tbaa !24
  %16 = getelementptr inbounds nuw %struct.FT_LzwStateRec_, ptr %15, i32 0, i32 10
  store i32 9, ptr %16, align 4, !tbaa !43
  %17 = load ptr, ptr %2, align 8, !tbaa !24
  %18 = getelementptr inbounds nuw %struct.FT_LzwStateRec_, ptr %17, i32 0, i32 0
  store i32 0, ptr %18, align 8, !tbaa !44
  ret void
}

; Function Attrs: nounwind uwtable
define internal i32 @ft_lzw_file_fill_output(ptr noundef %0) #0 {
  %2 = alloca ptr, align 8
  %3 = alloca ptr, align 8
  %4 = alloca i64, align 8
  %5 = alloca i32, align 4
  store ptr %0, ptr %2, align 8, !tbaa !8
  call void @llvm.lifetime.start.p0(i64 8, ptr %3) #5
  %6 = load ptr, ptr %2, align 8, !tbaa !8
  %7 = getelementptr inbounds nuw %struct.FT_LZWFileRec_, ptr %6, i32 0, i32 3
  store ptr %7, ptr %3, align 8, !tbaa !24
  call void @llvm.lifetime.start.p0(i64 8, ptr %4) #5
  call void @llvm.lifetime.start.p0(i64 4, ptr %5) #5
  store i32 0, ptr %5, align 4, !tbaa !10
  %8 = load ptr, ptr %2, align 8, !tbaa !8
  %9 = getelementptr inbounds nuw %struct.FT_LZWFileRec_, ptr %8, i32 0, i32 4
  %10 = getelementptr inbounds [4096 x i8], ptr %9, i64 0, i64 0
  %11 = load ptr, ptr %2, align 8, !tbaa !8
  %12 = getelementptr inbounds nuw %struct.FT_LZWFileRec_, ptr %11, i32 0, i32 6
  store ptr %10, ptr %12, align 8, !tbaa !33
  %13 = load ptr, ptr %3, align 8, !tbaa !24
  %14 = load ptr, ptr %2, align 8, !tbaa !8
  %15 = getelementptr inbounds nuw %struct.FT_LZWFileRec_, ptr %14, i32 0, i32 4
  %16 = getelementptr inbounds [4096 x i8], ptr %15, i64 0, i64 0
  %17 = call i64 @ft_lzwstate_io(ptr noundef %13, ptr noundef %16, i64 noundef 4096)
  store i64 %17, ptr %4, align 8, !tbaa !35
  %18 = load ptr, ptr %2, align 8, !tbaa !8
  %19 = getelementptr inbounds nuw %struct.FT_LZWFileRec_, ptr %18, i32 0, i32 6
  %20 = load ptr, ptr %19, align 8, !tbaa !33
  %21 = load i64, ptr %4, align 8, !tbaa !35
  %22 = getelementptr inbounds nuw i8, ptr %20, i64 %21
  %23 = load ptr, ptr %2, align 8, !tbaa !8
  %24 = getelementptr inbounds nuw %struct.FT_LZWFileRec_, ptr %23, i32 0, i32 7
  store ptr %22, ptr %24, align 8, !tbaa !32
  %25 = load i64, ptr %4, align 8, !tbaa !35
  %26 = icmp eq i64 %25, 0
  br i1 %26, label %27, label %28

27:                                               ; preds = %1
  store i32 85, ptr %5, align 4, !tbaa !10
  br label %28

28:                                               ; preds = %27, %1
  %29 = load i32, ptr %5, align 4, !tbaa !10
  call void @llvm.lifetime.end.p0(i64 4, ptr %5) #5
  call void @llvm.lifetime.end.p0(i64 8, ptr %4) #5
  call void @llvm.lifetime.end.p0(i64 8, ptr %3) #5
  ret i32 %29
}

; Function Attrs: nounwind uwtable
define internal i32 @ft_lzw_file_skip_output(ptr noundef %0, i64 noundef %1) #0 {
  %3 = alloca ptr, align 8
  %4 = alloca i64, align 8
  %5 = alloca i32, align 4
  %6 = alloca i64, align 8
  %7 = alloca i64, align 8
  %8 = alloca i64, align 8
  %9 = alloca i32, align 4
  store ptr %0, ptr %3, align 8, !tbaa !8
  store i64 %1, ptr %4, align 8, !tbaa !35
  call void @llvm.lifetime.start.p0(i64 4, ptr %5) #5
  store i32 0, ptr %5, align 4, !tbaa !10
  call void @llvm.lifetime.start.p0(i64 8, ptr %6) #5
  %10 = load ptr, ptr %3, align 8, !tbaa !8
  %11 = getelementptr inbounds nuw %struct.FT_LZWFileRec_, ptr %10, i32 0, i32 7
  %12 = load ptr, ptr %11, align 8, !tbaa !32
  %13 = load ptr, ptr %3, align 8, !tbaa !8
  %14 = getelementptr inbounds nuw %struct.FT_LZWFileRec_, ptr %13, i32 0, i32 6
  %15 = load ptr, ptr %14, align 8, !tbaa !33
  %16 = ptrtoint ptr %12 to i64
  %17 = ptrtoint ptr %15 to i64
  %18 = sub i64 %16, %17
  store i64 %18, ptr %6, align 8, !tbaa !35
  %19 = load i64, ptr %6, align 8, !tbaa !35
  %20 = load i64, ptr %4, align 8, !tbaa !35
  %21 = icmp uge i64 %19, %20
  br i1 %21, label %22, label %24

22:                                               ; preds = %2
  %23 = load i64, ptr %4, align 8, !tbaa !35
  store i64 %23, ptr %6, align 8, !tbaa !35
  br label %24

24:                                               ; preds = %22, %2
  %25 = load i64, ptr %6, align 8, !tbaa !35
  %26 = load ptr, ptr %3, align 8, !tbaa !8
  %27 = getelementptr inbounds nuw %struct.FT_LZWFileRec_, ptr %26, i32 0, i32 6
  %28 = load ptr, ptr %27, align 8, !tbaa !33
  %29 = getelementptr inbounds nuw i8, ptr %28, i64 %25
  store ptr %29, ptr %27, align 8, !tbaa !33
  %30 = load i64, ptr %6, align 8, !tbaa !35
  %31 = load ptr, ptr %3, align 8, !tbaa !8
  %32 = getelementptr inbounds nuw %struct.FT_LZWFileRec_, ptr %31, i32 0, i32 5
  %33 = load i64, ptr %32, align 8, !tbaa !34
  %34 = add i64 %33, %30
  store i64 %34, ptr %32, align 8, !tbaa !34
  %35 = load i64, ptr %6, align 8, !tbaa !35
  %36 = load i64, ptr %4, align 8, !tbaa !35
  %37 = sub i64 %36, %35
  store i64 %37, ptr %4, align 8, !tbaa !35
  call void @llvm.lifetime.end.p0(i64 8, ptr %6) #5
  br label %38

38:                                               ; preds = %67, %24
  %39 = load i64, ptr %4, align 8, !tbaa !35
  %40 = icmp ugt i64 %39, 0
  br i1 %40, label %41, label %68

41:                                               ; preds = %38
  call void @llvm.lifetime.start.p0(i64 8, ptr %7) #5
  store i64 4096, ptr %7, align 8, !tbaa !35
  call void @llvm.lifetime.start.p0(i64 8, ptr %8) #5
  %42 = load i64, ptr %7, align 8, !tbaa !35
  %43 = load i64, ptr %4, align 8, !tbaa !35
  %44 = icmp ugt i64 %42, %43
  br i1 %44, label %45, label %47

45:                                               ; preds = %41
  %46 = load i64, ptr %4, align 8, !tbaa !35
  store i64 %46, ptr %7, align 8, !tbaa !35
  br label %47

47:                                               ; preds = %45, %41
  %48 = load ptr, ptr %3, align 8, !tbaa !8
  %49 = getelementptr inbounds nuw %struct.FT_LZWFileRec_, ptr %48, i32 0, i32 3
  %50 = load i64, ptr %7, align 8, !tbaa !35
  %51 = call i64 @ft_lzwstate_io(ptr noundef %49, ptr noundef null, i64 noundef %50)
  store i64 %51, ptr %8, align 8, !tbaa !35
  %52 = load i64, ptr %8, align 8, !tbaa !35
  %53 = load i64, ptr %7, align 8, !tbaa !35
  %54 = icmp ult i64 %52, %53
  br i1 %54, label %55, label %56

55:                                               ; preds = %47
  store i32 85, ptr %5, align 4, !tbaa !10
  store i32 3, ptr %9, align 4
  br label %65

56:                                               ; preds = %47
  %57 = load i64, ptr %7, align 8, !tbaa !35
  %58 = load ptr, ptr %3, align 8, !tbaa !8
  %59 = getelementptr inbounds nuw %struct.FT_LZWFileRec_, ptr %58, i32 0, i32 5
  %60 = load i64, ptr %59, align 8, !tbaa !34
  %61 = add i64 %60, %57
  store i64 %61, ptr %59, align 8, !tbaa !34
  %62 = load i64, ptr %7, align 8, !tbaa !35
  %63 = load i64, ptr %4, align 8, !tbaa !35
  %64 = sub i64 %63, %62
  store i64 %64, ptr %4, align 8, !tbaa !35
  store i32 0, ptr %9, align 4
  br label %65

65:                                               ; preds = %56, %55
  call void @llvm.lifetime.end.p0(i64 8, ptr %8) #5
  call void @llvm.lifetime.end.p0(i64 8, ptr %7) #5
  %66 = load i32, ptr %9, align 4
  switch i32 %66, label %70 [
    i32 0, label %67
    i32 3, label %68
  ]

67:                                               ; preds = %65
  br label %38, !llvm.loop !65

68:                                               ; preds = %65, %38
  %69 = load i32, ptr %5, align 4, !tbaa !10
  store i32 1, ptr %9, align 4
  call void @llvm.lifetime.end.p0(i64 4, ptr %5) #5
  ret i32 %69

70:                                               ; preds = %65
  unreachable
}

; Function Attrs: nounwind uwtable
define internal i32 @ft_lzw_file_reset(ptr noundef %0) #0 {
  %2 = alloca ptr, align 8
  %3 = alloca ptr, align 8
  %4 = alloca i32, align 4
  store ptr %0, ptr %2, align 8, !tbaa !8
  call void @llvm.lifetime.start.p0(i64 8, ptr %3) #5
  %5 = load ptr, ptr %2, align 8, !tbaa !8
  %6 = getelementptr inbounds nuw %struct.FT_LZWFileRec_, ptr %5, i32 0, i32 0
  %7 = load ptr, ptr %6, align 8, !tbaa !30
  store ptr %7, ptr %3, align 8, !tbaa !3
  call void @llvm.lifetime.start.p0(i64 4, ptr %4) #5
  %8 = load ptr, ptr %3, align 8, !tbaa !3
  %9 = call i32 @FT_Stream_Seek(ptr noundef %8, i64 noundef 0)
  store i32 %9, ptr %4, align 4, !tbaa !10
  %10 = icmp ne i32 %9, 0
  br i1 %10, label %27, label %11

11:                                               ; preds = %1
  %12 = load ptr, ptr %2, align 8, !tbaa !8
  %13 = getelementptr inbounds nuw %struct.FT_LZWFileRec_, ptr %12, i32 0, i32 3
  call void @ft_lzwstate_reset(ptr noundef %13)
  %14 = load ptr, ptr %2, align 8, !tbaa !8
  %15 = getelementptr inbounds nuw %struct.FT_LZWFileRec_, ptr %14, i32 0, i32 4
  %16 = getelementptr inbounds [4096 x i8], ptr %15, i64 0, i64 0
  %17 = getelementptr inbounds i8, ptr %16, i64 4096
  %18 = load ptr, ptr %2, align 8, !tbaa !8
  %19 = getelementptr inbounds nuw %struct.FT_LZWFileRec_, ptr %18, i32 0, i32 7
  store ptr %17, ptr %19, align 8, !tbaa !32
  %20 = load ptr, ptr %2, align 8, !tbaa !8
  %21 = getelementptr inbounds nuw %struct.FT_LZWFileRec_, ptr %20, i32 0, i32 7
  %22 = load ptr, ptr %21, align 8, !tbaa !32
  %23 = load ptr, ptr %2, align 8, !tbaa !8
  %24 = getelementptr inbounds nuw %struct.FT_LZWFileRec_, ptr %23, i32 0, i32 6
  store ptr %22, ptr %24, align 8, !tbaa !33
  %25 = load ptr, ptr %2, align 8, !tbaa !8
  %26 = getelementptr inbounds nuw %struct.FT_LZWFileRec_, ptr %25, i32 0, i32 5
  store i64 0, ptr %26, align 8, !tbaa !34
  br label %27

27:                                               ; preds = %11, %1
  %28 = load i32, ptr %4, align 4, !tbaa !10
  call void @llvm.lifetime.end.p0(i64 4, ptr %4) #5
  call void @llvm.lifetime.end.p0(i64 8, ptr %3) #5
  ret i32 %28
}

; Function Attrs: nounwind uwtable
define internal i64 @ft_lzw_file_io(ptr noundef %0, i64 noundef %1, ptr noundef %2, i64 noundef %3) #0 {
  %5 = alloca ptr, align 8
  %6 = alloca i64, align 8
  %7 = alloca ptr, align 8
  %8 = alloca i64, align 8
  %9 = alloca i64, align 8
  %10 = alloca i32, align 4
  %11 = alloca i64, align 8
  %12 = alloca i32, align 4
  store ptr %0, ptr %5, align 8, !tbaa !8
  store i64 %1, ptr %6, align 8, !tbaa !35
  store ptr %2, ptr %7, align 8, !tbaa !36
  store i64 %3, ptr %8, align 8, !tbaa !35
  call void @llvm.lifetime.start.p0(i64 8, ptr %9) #5
  store i64 0, ptr %9, align 8, !tbaa !35
  call void @llvm.lifetime.start.p0(i64 4, ptr %10) #5
  %13 = load i64, ptr %6, align 8, !tbaa !35
  %14 = load ptr, ptr %5, align 8, !tbaa !8
  %15 = getelementptr inbounds nuw %struct.FT_LZWFileRec_, ptr %14, i32 0, i32 5
  %16 = load i64, ptr %15, align 8, !tbaa !34
  %17 = icmp ult i64 %13, %16
  br i1 %17, label %18, label %56

18:                                               ; preds = %4
  %19 = load ptr, ptr %5, align 8, !tbaa !8
  %20 = getelementptr inbounds nuw %struct.FT_LZWFileRec_, ptr %19, i32 0, i32 5
  %21 = load i64, ptr %20, align 8, !tbaa !34
  %22 = load i64, ptr %6, align 8, !tbaa !35
  %23 = sub i64 %21, %22
  %24 = load ptr, ptr %5, align 8, !tbaa !8
  %25 = getelementptr inbounds nuw %struct.FT_LZWFileRec_, ptr %24, i32 0, i32 6
  %26 = load ptr, ptr %25, align 8, !tbaa !33
  %27 = load ptr, ptr %5, align 8, !tbaa !8
  %28 = getelementptr inbounds nuw %struct.FT_LZWFileRec_, ptr %27, i32 0, i32 4
  %29 = getelementptr inbounds [4096 x i8], ptr %28, i64 0, i64 0
  %30 = ptrtoint ptr %26 to i64
  %31 = ptrtoint ptr %29 to i64
  %32 = sub i64 %30, %31
  %33 = icmp ule i64 %23, %32
  br i1 %33, label %34, label %48

34:                                               ; preds = %18
  %35 = load ptr, ptr %5, align 8, !tbaa !8
  %36 = getelementptr inbounds nuw %struct.FT_LZWFileRec_, ptr %35, i32 0, i32 5
  %37 = load i64, ptr %36, align 8, !tbaa !34
  %38 = load i64, ptr %6, align 8, !tbaa !35
  %39 = sub i64 %37, %38
  %40 = load ptr, ptr %5, align 8, !tbaa !8
  %41 = getelementptr inbounds nuw %struct.FT_LZWFileRec_, ptr %40, i32 0, i32 6
  %42 = load ptr, ptr %41, align 8, !tbaa !33
  %43 = sub i64 0, %39
  %44 = getelementptr inbounds i8, ptr %42, i64 %43
  store ptr %44, ptr %41, align 8, !tbaa !33
  %45 = load i64, ptr %6, align 8, !tbaa !35
  %46 = load ptr, ptr %5, align 8, !tbaa !8
  %47 = getelementptr inbounds nuw %struct.FT_LZWFileRec_, ptr %46, i32 0, i32 5
  store i64 %45, ptr %47, align 8, !tbaa !34
  br label %55

48:                                               ; preds = %18
  %49 = load ptr, ptr %5, align 8, !tbaa !8
  %50 = call i32 @ft_lzw_file_reset(ptr noundef %49)
  store i32 %50, ptr %10, align 4, !tbaa !10
  %51 = load i32, ptr %10, align 4, !tbaa !10
  %52 = icmp ne i32 %51, 0
  br i1 %52, label %53, label %54

53:                                               ; preds = %48
  br label %132

54:                                               ; preds = %48
  br label %55

55:                                               ; preds = %54, %34
  br label %56

56:                                               ; preds = %55, %4
  %57 = load i64, ptr %6, align 8, !tbaa !35
  %58 = load ptr, ptr %5, align 8, !tbaa !8
  %59 = getelementptr inbounds nuw %struct.FT_LZWFileRec_, ptr %58, i32 0, i32 5
  %60 = load i64, ptr %59, align 8, !tbaa !34
  %61 = icmp ugt i64 %57, %60
  br i1 %61, label %62, label %74

62:                                               ; preds = %56
  %63 = load ptr, ptr %5, align 8, !tbaa !8
  %64 = load i64, ptr %6, align 8, !tbaa !35
  %65 = load ptr, ptr %5, align 8, !tbaa !8
  %66 = getelementptr inbounds nuw %struct.FT_LZWFileRec_, ptr %65, i32 0, i32 5
  %67 = load i64, ptr %66, align 8, !tbaa !34
  %68 = sub i64 %64, %67
  %69 = call i32 @ft_lzw_file_skip_output(ptr noundef %63, i64 noundef %68)
  store i32 %69, ptr %10, align 4, !tbaa !10
  %70 = load i32, ptr %10, align 4, !tbaa !10
  %71 = icmp ne i32 %70, 0
  br i1 %71, label %72, label %73

72:                                               ; preds = %62
  br label %132

73:                                               ; preds = %62
  br label %74

74:                                               ; preds = %73, %56
  %75 = load i64, ptr %8, align 8, !tbaa !35
  %76 = icmp eq i64 %75, 0
  br i1 %76, label %77, label %78

77:                                               ; preds = %74
  br label %132

78:                                               ; preds = %74
  br label %79

79:                                               ; preds = %130, %78
  call void @llvm.lifetime.start.p0(i64 8, ptr %11) #5
  %80 = load ptr, ptr %5, align 8, !tbaa !8
  %81 = getelementptr inbounds nuw %struct.FT_LZWFileRec_, ptr %80, i32 0, i32 7
  %82 = load ptr, ptr %81, align 8, !tbaa !32
  %83 = load ptr, ptr %5, align 8, !tbaa !8
  %84 = getelementptr inbounds nuw %struct.FT_LZWFileRec_, ptr %83, i32 0, i32 6
  %85 = load ptr, ptr %84, align 8, !tbaa !33
  %86 = ptrtoint ptr %82 to i64
  %87 = ptrtoint ptr %85 to i64
  %88 = sub i64 %86, %87
  store i64 %88, ptr %11, align 8, !tbaa !35
  %89 = load i64, ptr %11, align 8, !tbaa !35
  %90 = load i64, ptr %8, align 8, !tbaa !35
  %91 = icmp uge i64 %89, %90
  br i1 %91, label %92, label %94

92:                                               ; preds = %79
  %93 = load i64, ptr %8, align 8, !tbaa !35
  store i64 %93, ptr %11, align 8, !tbaa !35
  br label %94

94:                                               ; preds = %92, %79
  %95 = load ptr, ptr %7, align 8, !tbaa !36
  %96 = load i64, ptr %9, align 8, !tbaa !35
  %97 = getelementptr inbounds nuw i8, ptr %95, i64 %96
  %98 = load ptr, ptr %5, align 8, !tbaa !8
  %99 = getelementptr inbounds nuw %struct.FT_LZWFileRec_, ptr %98, i32 0, i32 6
  %100 = load ptr, ptr %99, align 8, !tbaa !33
  %101 = load i64, ptr %11, align 8, !tbaa !35
  call void @llvm.memcpy.p0.p0.i64(ptr align 1 %97, ptr align 1 %100, i64 %101, i1 false)
  %102 = load i64, ptr %11, align 8, !tbaa !35
  %103 = load i64, ptr %9, align 8, !tbaa !35
  %104 = add i64 %103, %102
  store i64 %104, ptr %9, align 8, !tbaa !35
  %105 = load i64, ptr %11, align 8, !tbaa !35
  %106 = load ptr, ptr %5, align 8, !tbaa !8
  %107 = getelementptr inbounds nuw %struct.FT_LZWFileRec_, ptr %106, i32 0, i32 6
  %108 = load ptr, ptr %107, align 8, !tbaa !33
  %109 = getelementptr inbounds nuw i8, ptr %108, i64 %105
  store ptr %109, ptr %107, align 8, !tbaa !33
  %110 = load i64, ptr %11, align 8, !tbaa !35
  %111 = load ptr, ptr %5, align 8, !tbaa !8
  %112 = getelementptr inbounds nuw %struct.FT_LZWFileRec_, ptr %111, i32 0, i32 5
  %113 = load i64, ptr %112, align 8, !tbaa !34
  %114 = add i64 %113, %110
  store i64 %114, ptr %112, align 8, !tbaa !34
  %115 = load i64, ptr %11, align 8, !tbaa !35
  %116 = load i64, ptr %8, align 8, !tbaa !35
  %117 = sub i64 %116, %115
  store i64 %117, ptr %8, align 8, !tbaa !35
  %118 = load i64, ptr %8, align 8, !tbaa !35
  %119 = icmp eq i64 %118, 0
  br i1 %119, label %120, label %121

120:                                              ; preds = %94
  store i32 3, ptr %12, align 4
  br label %128

121:                                              ; preds = %94
  %122 = load ptr, ptr %5, align 8, !tbaa !8
  %123 = call i32 @ft_lzw_file_fill_output(ptr noundef %122)
  store i32 %123, ptr %10, align 4, !tbaa !10
  %124 = load i32, ptr %10, align 4, !tbaa !10
  %125 = icmp ne i32 %124, 0
  br i1 %125, label %126, label %127

126:                                              ; preds = %121
  store i32 3, ptr %12, align 4
  br label %128

127:                                              ; preds = %121
  store i32 0, ptr %12, align 4
  br label %128

128:                                              ; preds = %127, %126, %120
  call void @llvm.lifetime.end.p0(i64 8, ptr %11) #5
  %129 = load i32, ptr %12, align 4
  switch i32 %129, label %134 [
    i32 0, label %130
    i32 3, label %131
  ]

130:                                              ; preds = %128
  br label %79

131:                                              ; preds = %128
  br label %132

132:                                              ; preds = %131, %77, %72, %53
  %133 = load i64, ptr %9, align 8, !tbaa !35
  store i32 1, ptr %12, align 4
  call void @llvm.lifetime.end.p0(i64 4, ptr %10) #5
  call void @llvm.lifetime.end.p0(i64 8, ptr %9) #5
  ret i64 %133

134:                                              ; preds = %128
  unreachable
}

; Function Attrs: nounwind uwtable
define internal i64 @ft_lzw_stream_io(ptr noundef %0, i64 noundef %1, ptr noundef %2, i64 noundef %3) #0 {
  %5 = alloca ptr, align 8
  %6 = alloca i64, align 8
  %7 = alloca ptr, align 8
  %8 = alloca i64, align 8
  %9 = alloca ptr, align 8
  store ptr %0, ptr %5, align 8, !tbaa !3
  store i64 %1, ptr %6, align 8, !tbaa !35
  store ptr %2, ptr %7, align 8, !tbaa !36
  store i64 %3, ptr %8, align 8, !tbaa !35
  call void @llvm.lifetime.start.p0(i64 8, ptr %9) #5
  %10 = load ptr, ptr %5, align 8, !tbaa !3
  %11 = getelementptr inbounds nuw %struct.FT_StreamRec_, ptr %10, i32 0, i32 3
  %12 = load ptr, ptr %11, align 8, !tbaa !18
  store ptr %12, ptr %9, align 8, !tbaa !8
  %13 = load ptr, ptr %9, align 8, !tbaa !8
  %14 = load i64, ptr %6, align 8, !tbaa !35
  %15 = load ptr, ptr %7, align 8, !tbaa !36
  %16 = load i64, ptr %8, align 8, !tbaa !35
  %17 = call i64 @ft_lzw_file_io(ptr noundef %13, i64 noundef %14, ptr noundef %15, i64 noundef %16)
  call void @llvm.lifetime.end.p0(i64 8, ptr %9) #5
  ret i64 %17
}