; Function Attrs: nounwind uwtable
define internal i64 @ft_lzw_stream_io(ptr noundef readonly captures(none) %0, i64 noundef %1, ptr noundef writeonly captures(none) %2, i64 noundef %3) #0 {
  %5 = getelementptr inbounds nuw i8, ptr %0, i64 24
  %6 = load ptr, ptr %5, align 8, !tbaa !11
  %7 = getelementptr inbounds nuw i8, ptr %6, i64 4336
  %8 = load i64, ptr %7, align 8, !tbaa !23
  %9 = icmp ult i64 %1, %8
  br i1 %9, label %10, label %30

10:                                               ; preds = %4
  %11 = sub nuw i64 %8, %1
  %12 = getelementptr inbounds nuw i8, ptr %6, i64 4344
  %13 = load ptr, ptr %12, align 8, !tbaa !22
  %14 = getelementptr inbounds nuw i8, ptr %6, i64 240
  %15 = ptrtoint ptr %13 to i64
  %16 = ptrtoint ptr %14 to i64
  %17 = sub i64 %15, %16
  %.not.i = icmp ugt i64 %11, %17
  br i1 %.not.i, label %20, label %.thread.i

.thread.i:                                        ; preds = %10
  %18 = sub i64 0, %11
  %19 = getelementptr inbounds i8, ptr %13, i64 %18
  store ptr %19, ptr %12, align 8, !tbaa !22
  store i64 %1, ptr %7, align 8, !tbaa !23
  br label %54

20:                                               ; preds = %10
  %21 = load ptr, ptr %6, align 8, !tbaa !19
  %22 = tail call i32 @FT_Stream_Seek(ptr noundef %21, i64 noundef 0) #8
  %.not.i.i = icmp eq i32 %22, 0
  br i1 %.not.i.i, label %ft_lzw_file_reset.exit.thread.i, label %ft_lzw_file_io.exit

ft_lzw_file_reset.exit.thread.i:                  ; preds = %20
  %23 = getelementptr inbounds nuw i8, ptr %6, i64 24
  %24 = getelementptr inbounds nuw i8, ptr %6, i64 28
  store i32 0, ptr %24, align 4, !tbaa !34
  %25 = getelementptr inbounds nuw i8, ptr %6, i64 48
  %26 = getelementptr inbounds nuw i8, ptr %6, i64 64
  store i64 0, ptr %26, align 8, !tbaa !35
  %27 = getelementptr inbounds nuw i8, ptr %6, i64 144
  store i32 0, ptr %27, align 8, !tbaa !36
  %28 = getelementptr inbounds nuw i8, ptr %6, i64 84
  tail call void @llvm.memset.p0.i64(ptr noundef nonnull align 8 dereferenceable(9) %25, i8 0, i64 9, i1 false)
  store i32 9, ptr %28, align 4, !tbaa !28
  store i32 0, ptr %23, align 8, !tbaa !37
  %29 = getelementptr inbounds nuw i8, ptr %6, i64 4352
  store ptr %7, ptr %29, align 8, !tbaa !21
  store ptr %7, ptr %12, align 8, !tbaa !22
  store i64 0, ptr %7, align 8, !tbaa !23
  br label %30

30:                                               ; preds = %ft_lzw_file_reset.exit.thread.i, %4
  %31 = phi i64 [ 0, %ft_lzw_file_reset.exit.thread.i ], [ %8, %4 ]
  %32 = icmp ugt i64 %1, %31
  br i1 %32, label %33, label %54

33:                                               ; preds = %30
  %34 = sub nuw i64 %1, %31
  %35 = getelementptr inbounds nuw i8, ptr %6, i64 4352
  %36 = load ptr, ptr %35, align 8, !tbaa !21
  %37 = getelementptr inbounds nuw i8, ptr %6, i64 4344
  %38 = load ptr, ptr %37, align 8, !tbaa !22
  %39 = ptrtoint ptr %36 to i64
  %40 = ptrtoint ptr %38 to i64
  %41 = sub i64 %39, %40
  %spec.select.i.i = tail call i64 @llvm.umin.i64(i64 %41, i64 %34)
  %42 = getelementptr inbounds nuw i8, ptr %38, i64 %spec.select.i.i
  store ptr %42, ptr %37, align 8, !tbaa !22
  %43 = add i64 %spec.select.i.i, %31
  store i64 %43, ptr %7, align 8, !tbaa !23
  %44 = sub i64 %34, %spec.select.i.i
  %.not3137.i.i = icmp eq i64 %44, 0
  br i1 %.not3137.i.i, label %ft_lzw_file_skip_output.exit.i, label %.lr.ph.i.i

.lr.ph.i.i:                                       ; preds = %33
  %45 = getelementptr inbounds nuw i8, ptr %6, i64 24
  br label %46

46:                                               ; preds = %49, %.lr.ph.i.i
  %.02438.i.i = phi i64 [ %44, %.lr.ph.i.i ], [ %52, %49 ]
  %spec.select32.i.i = tail call i64 @llvm.umin.i64(i64 %.02438.i.i, i64 4096)
  %47 = tail call i64 @ft_lzwstate_io(ptr noundef nonnull %45, ptr noundef null, i64 noundef %spec.select32.i.i)
  %48 = icmp ult i64 %47, %spec.select32.i.i
  br i1 %48, label %ft_lzw_file_io.exit, label %49

49:                                               ; preds = %46
  %50 = load i64, ptr %7, align 8, !tbaa !23
  %51 = add i64 %50, %spec.select32.i.i
  store i64 %51, ptr %7, align 8, !tbaa !23
  %52 = sub i64 %.02438.i.i, %spec.select32.i.i
  %.not31.i.i = icmp eq i64 %52, 0
  br i1 %.not31.i.i, label %ft_lzw_file_skip_output.exit.i, label %46

ft_lzw_file_skip_output.exit.i:                   ; preds = %49, %33
  %53 = icmp eq i64 %3, 0
  br i1 %53, label %ft_lzw_file_io.exit, label %.preheader.i

54:                                               ; preds = %30, %.thread.i
  %.old1.i = icmp eq i64 %3, 0
  br i1 %.old1.i, label %ft_lzw_file_io.exit, label %.preheader.i

.preheader.i:                                     ; preds = %54, %ft_lzw_file_skip_output.exit.i
  %55 = getelementptr inbounds nuw i8, ptr %6, i64 24
  %56 = getelementptr inbounds nuw i8, ptr %6, i64 240
  %57 = getelementptr inbounds nuw i8, ptr %6, i64 4352
  %58 = getelementptr inbounds nuw i8, ptr %6, i64 4344
  %.pre.i = load ptr, ptr %57, align 8, !tbaa !21
  %.pre65.i = load ptr, ptr %58, align 8, !tbaa !22
  br label %59

59:                                               ; preds = %73, %.preheader.i
  %60 = phi ptr [ %75, %73 ], [ %.pre65.i, %.preheader.i ]
  %61 = phi ptr [ %76, %73 ], [ %.pre.i, %.preheader.i ]
  %.045.i = phi i64 [ %71, %73 ], [ %3, %.preheader.i ]
  %.1.i = phi i64 [ %66, %73 ], [ 0, %.preheader.i ]
  %62 = ptrtoint ptr %61 to i64
  %63 = ptrtoint ptr %60 to i64
  %64 = sub i64 %62, %63
  %spec.select.i = tail call i64 @llvm.umin.i64(i64 %64, i64 %.045.i)
  %65 = getelementptr inbounds nuw i8, ptr %2, i64 %.1.i
  tail call void @llvm.memcpy.p0.p0.i64(ptr align 1 %65, ptr align 1 %60, i64 %spec.select.i, i1 false)
  %66 = add i64 %spec.select.i, %.1.i
  %67 = load ptr, ptr %58, align 8, !tbaa !22
  %68 = getelementptr inbounds nuw i8, ptr %67, i64 %spec.select.i
  store ptr %68, ptr %58, align 8, !tbaa !22
  %69 = load i64, ptr %7, align 8, !tbaa !23
  %70 = add i64 %69, %spec.select.i
  store i64 %70, ptr %7, align 8, !tbaa !23
  %71 = sub i64 %.045.i, %spec.select.i
  %72 = icmp eq i64 %71, 0
  br i1 %72, label %ft_lzw_file_io.exit, label %73

73:                                               ; preds = %59
  store ptr %56, ptr %58, align 8, !tbaa !22
  %74 = tail call i64 @ft_lzwstate_io(ptr noundef nonnull %55, ptr noundef nonnull %56, i64 noundef 4096)
  %75 = load ptr, ptr %58, align 8, !tbaa !22
  %76 = getelementptr inbounds nuw i8, ptr %75, i64 %74
  store ptr %76, ptr %57, align 8, !tbaa !21
  %.not62.i = icmp eq i64 %74, 0
  br i1 %.not62.i, label %ft_lzw_file_io.exit, label %59

ft_lzw_file_io.exit:                              ; preds = %46, %59, %73, %20, %ft_lzw_file_skip_output.exit.i, %54
  %.044.i = phi i64 [ 0, %ft_lzw_file_skip_output.exit.i ], [ 0, %54 ], [ 0, %20 ], [ %66, %73 ], [ %66, %59 ], [ 0, %46 ]
  ret i64 %.044.i
}